target datalayout = "e-m:e-p270:32:32-p271:32:32-p272:64:64-i64:64-i128:128-f80:128-n8:16:32:64-S128"
target triple = "x86_64-unknown-linux-gnu"

%"class.std::__cxx11::basic_string" = type { %"struct.std::__cxx11::basic_string<char>::_Alloc_hider", i64, %union.anon }
%"struct.std::__cxx11::basic_string<char>::_Alloc_hider" = type { ptr }
%union.anon = type { i64, [8 x i8] }

; Function Attrs: mustprogress nounwind uwtable
define internal noundef i64 @_ZL20utf8proc_encode_chariPh(i32 noundef %uc, ptr noundef %dst) #5 {
entry:
  %retval = alloca i64, align 8
  %uc.addr = alloca i32, align 4
  %dst.addr = alloca ptr, align 8
  store i32 %uc, ptr %uc.addr, align 4
  store ptr %dst, ptr %dst.addr, align 8
  %0 = load i32, ptr %uc.addr, align 4
  %cmp = icmp slt i32 %0, 0
  br i1 %cmp, label %if.then, label %if.else

if.then:                                          ; preds = %entry
  store i64 0, ptr %retval, align 8
  br label %return

if.else:                                          ; preds = %entry
  %1 = load i32, ptr %uc.addr, align 4
  %cmp1 = icmp slt i32 %1, 128
  br i1 %cmp1, label %if.then2, label %if.else3

if.then2:                                         ; preds = %if.else
  %2 = load i32, ptr %uc.addr, align 4
  %conv = trunc i32 %2 to i8
  %3 = load ptr, ptr %dst.addr, align 8
  %arrayidx = getelementptr inbounds i8, ptr %3, i64 0
  store i8 %conv, ptr %arrayidx, align 1
  store i64 1, ptr %retval, align 8
  br label %return

if.else3:                                         ; preds = %if.else
  %4 = load i32, ptr %uc.addr, align 4
  %cmp4 = icmp slt i32 %4, 2048
  br i1 %cmp4, label %if.then5, label %if.else11

if.then5:                                         ; preds = %if.else3
  %5 = load i32, ptr %uc.addr, align 4
  %shr = ashr i32 %5, 6
  %add = add nsw i32 192, %shr
  %conv6 = trunc i32 %add to i8
  %6 = load ptr, ptr %dst.addr, align 8
  %arrayidx7 = getelementptr inbounds i8, ptr %6, i64 0
  store i8 %conv6, ptr %arrayidx7, align 1
  %7 = load i32, ptr %uc.addr, align 4
  %and = and i32 %7, 63
  %add8 = add nsw i32 128, %and
  %conv9 = trunc i32 %add8 to i8
  %8 = load ptr, ptr %dst.addr, align 8
  %arrayidx10 = getelementptr inbounds i8, ptr %8, i64 1
  store i8 %conv9, ptr %arrayidx10, align 1
  store i64 2, ptr %retval, align 8
  br label %return

if.else11:                                        ; preds = %if.else3
  %9 = load i32, ptr %uc.addr, align 4
  %cmp12 = icmp slt i32 %9, 65536
  br i1 %cmp12, label %if.then13, label %if.else27

if.then13:                                        ; preds = %if.else11
  %10 = load i32, ptr %uc.addr, align 4
  %shr14 = ashr i32 %10, 12
  %add15 = add nsw i32 224, %shr14
  %conv16 = trunc i32 %add15 to i8
  %11 = load ptr, ptr %dst.addr, align 8
  %arrayidx17 = getelementptr inbounds i8, ptr %11, i64 0
  store i8 %conv16, ptr %arrayidx17, align 1
  %12 = load i32, ptr %uc.addr, align 4
  %shr18 = ashr i32 %12, 6
  %and19 = and i32 %shr18, 63
  %add20 = add nsw i32 128, %and19
  %conv21 = trunc i32 %add20 to i8
  %13 = load ptr, ptr %dst.addr, align 8
  %arrayidx22 = getelementptr inbounds i8, ptr %13, i64 1
  store i8 %conv21, ptr %arrayidx22, align 1
  %14 = load i32, ptr %uc.addr, align 4
  %and23 = and i32 %14, 63
  %add24 = add nsw i32 128, %and23
  %conv25 = trunc i32 %add24 to i8
  %15 = load ptr, ptr %dst.addr, align 8
  %arrayidx26 = getelementptr inbounds i8, ptr %15, i64 2
  store i8 %conv25, ptr %arrayidx26, align 1
  store i64 3, ptr %retval, align 8
  br label %return

if.else27:                                        ; preds = %if.else11
  %16 = load i32, ptr %uc.addr, align 4
  %cmp28 = icmp slt i32 %16, 1114112
  br i1 %cmp28, label %if.then29, label %if.else48

if.then29:                                        ; preds = %if.else27
  %17 = load i32, ptr %uc.addr, align 4
  %shr30 = ashr i32 %17, 18
  %add31 = add nsw i32 240, %shr30
  %conv32 = trunc i32 %add31 to i8
  %18 = load ptr, ptr %dst.addr, align 8
  %arrayidx33 = getelementptr inbounds i8, ptr %18, i64 0
  store i8 %conv32, ptr %arrayidx33, align 1
  %19 = load i32, ptr %uc.addr, align 4
  %shr34 = ashr i32 %19, 12
  %and35 = and i32 %shr34, 63
  %add36 = add nsw i32 128, %and35
  %conv37 = trunc i32 %add36 to i8
  %20 = load ptr, ptr %dst.addr, align 8
  %arrayidx38 = getelementptr inbounds i8, ptr %20, i64 1
  store i8 %conv37, ptr %arrayidx38, align 1
  %21 = load i32, ptr %uc.addr, align 4
  %shr39 = ashr i32 %21, 6
  %and40 = and i32 %shr39, 63
  %add41 = add nsw i32 128, %and40
  %conv42 = trunc i32 %add41 to i8
  %22 = load ptr, ptr %dst.addr, align 8
  %arrayidx43 = getelementptr inbounds i8, ptr %22, i64 2
  store i8 %conv42, ptr %arrayidx43, align 1
  %23 = load i32, ptr %uc.addr, align 4
  %and44 = and i32 %23, 63
  %add45 = add nsw i32 128, %and44
  %conv46 = trunc i32 %add45 to i8
  %24 = load ptr, ptr %dst.addr, align 8
  %arrayidx47 = getelementptr inbounds i8, ptr %24, i64 3
  store i8 %conv46, ptr %arrayidx47, align 1
  store i64 4, ptr %retval, align 8
  br label %return

if.else48:                                        ; preds = %if.else27
  store i64 0, ptr %retval, align 8
  br label %return

return:                                           ; preds = %if.else48, %if.then29, %if.then13, %if.then5, %if.then2, %if.then
  %25 = load i64, ptr %retval, align 8
  ret i64 %25
}

; Function Attrs: mustprogress nounwind uwtable
define internal noundef zeroext i1 @_ZL24utf8proc_codepoint_validi(i32 noundef %uc) #5 {
entry:
  %uc.addr = alloca i32, align 4
  store i32 %uc, ptr %uc.addr, align 4
  %0 = load i32, ptr %uc.addr, align 4
  %sub = sub i32 %0, 55296
  %cmp = icmp ugt i32 %sub, 2047
  br i1 %cmp, label %land.rhs, label %land.end

land.rhs:                                         ; preds = %entry
  %1 = load i32, ptr %uc.addr, align 4
  %cmp1 = icmp ult i32 %1, 1114112
  br label %land.end

land.end:                                         ; preds = %land.rhs, %entry
  %2 = phi i1 [ false, %entry ], [ %cmp1, %land.rhs ]
  ret i1 %2
}

; Function Attrs: mustprogress uwtable
define internal void @_ZN8facebook5velox9functions12_GLOBAL__N_116FromUtf8Function17codePointToStringB5cxx11El(ptr noalias sret(%"class.std::__cxx11::basic_string") align 8 %agg.result, i64 noundef %codePoint) #1 align 2 personality ptr @__gxx_personality_v0 {
entry:
  %output.addr.i = alloca ptr, align 8
  %codePoint.addr.i = alloca i64, align 8
  %validCodePoint.i = alloca i8, align 1
  %size.i = alloca i64, align 8
  %result.ptr = alloca ptr, align 8
  %codePoint.addr = alloca i64, align 8
  %nrvo = alloca i1, align 1
  %exn.slot = alloca ptr, align 8
  %ehselector.slot = alloca i32, align 4
  store ptr %agg.result, ptr %result.ptr, align 8
  store i64 %codePoint, ptr %codePoint.addr, align 8
  store i1 false, ptr %nrvo, align 1
  call void @_ZNSt7__cxx1112basic_stringIcSt11char_traitsIcESaIcEEC1Ev(ptr noundef nonnull align 8 dereferenceable(32) %agg.result) #3
  invoke void @_ZNSt7__cxx1112basic_stringIcSt11char_traitsIcESaIcEE6resizeEm(ptr noundef nonnull align 8 dereferenceable(32) %agg.result, i64 noundef 4)
          to label %invoke.cont unwind label %lpad

invoke.cont:                                      ; preds = %entry
  %0 = load i64, ptr %codePoint.addr, align 8
  store ptr %agg.result, ptr %output.addr.i, align 8
  store i64 %0, ptr %codePoint.addr.i, align 8
  %1 = load i64, ptr %codePoint.addr.i, align 8
  %cmp.i = icmp sle i64 %1, 2147483647
  br i1 %cmp.i, label %land.rhs.i, label %land.end.i

land.rhs.i:                                       ; preds = %invoke.cont
  %2 = load i64, ptr %codePoint.addr.i, align 8
  %conv.i = trunc i64 %2 to i32
  %call.i = call noundef zeroext i1 @_ZL24utf8proc_codepoint_validi(i32 noundef %conv.i)
  br label %land.end.i

land.end.i:                                       ; preds = %land.rhs.i, %invoke.cont
  %3 = phi i1 [ false, %invoke.cont ], [ %call.i, %land.rhs.i ]
  %frombool.i = zext i1 %3 to i8
  store i8 %frombool.i, ptr %validCodePoint.i, align 1
  %4 = load i8, ptr %validCodePoint.i, align 1
  %tobool.i = trunc i8 %4 to i1
  %lnot.i = xor i1 %tobool.i, true
  br i1 %lnot.i, label %if.then.i, label %if.end.i

if.then.i:                                        ; preds = %land.end.i
  call void @llvm.trap()
  br label %if.end.i

if.end.i:                                         ; preds = %if.then.i, %land.end.i
  %5 = load ptr, ptr %output.addr.i, align 8
  invoke void @_ZNSt7__cxx1112basic_stringIcSt11char_traitsIcESaIcEE7reserveEm(ptr noundef nonnull align 8 dereferenceable(32) %5, i64 noundef 4)
          to label %.noexc unwind label %lpad

.noexc:                                           ; preds = %if.end.i
  %6 = load i64, ptr %codePoint.addr.i, align 8
  %conv2.i = trunc i64 %6 to i32
  %7 = load ptr, ptr %output.addr.i, align 8
  %call3.i = call noundef ptr @_ZNSt7__cxx1112basic_stringIcSt11char_traitsIcESaIcEE4dataEv(ptr noundef nonnull align 8 dereferenceable(32) %7) #3
  %call4.i = call noundef i64 @_ZL20utf8proc_encode_chariPh(i32 noundef %conv2.i, ptr noundef %call3.i)
  store i64 %call4.i, ptr %size.i, align 8
  %8 = load ptr, ptr %output.addr.i, align 8
  %9 = load i64, ptr %size.i, align 8
  invoke void @_ZNSt7__cxx1112basic_stringIcSt11char_traitsIcESaIcEE6resizeEm(ptr noundef nonnull align 8 dereferenceable(32) %8, i64 noundef %9)
          to label %_ZN8facebook5velox9functions10stringImpl17codePointToStringINSt7__cxx1112basic_stringIcSt11char_traitsIcESaIcEEEEEvRT_l.exit unwind label %lpad

_ZN8facebook5velox9functions10stringImpl17codePointToStringINSt7__cxx1112basic_stringIcSt11char_traitsIcESaIcEEEEEvRT_l.exit: ; preds = %.noexc
  br label %invoke.cont1

invoke.cont1:                                     ; preds = %_ZN8facebook5velox9functions10stringImpl17codePointToStringINSt7__cxx1112basic_stringIcSt11char_traitsIcESaIcEEEEEvRT_l.exit
  store i1 true, ptr %nrvo, align 1
  %nrvo.val = load i1, ptr %nrvo, align 1
  br i1 %nrvo.val, label %nrvo.skipdtor, label %nrvo.unused

lpad:                                             ; preds = %.noexc, %if.end.i, %entry
  %10 = landingpad { ptr, i32 }
          cleanup
  %11 = extractvalue { ptr, i32 } %10, 0
  store ptr %11, ptr %exn.slot, align 8
  %12 = extractvalue { ptr, i32 } %10, 1
  store i32 %12, ptr %ehselector.slot, align 4
  call void @_ZNSt7__cxx1112basic_stringIcSt11char_traitsIcESaIcEED1Ev(ptr noundef nonnull align 8 dereferenceable(32) %agg.result) #3
  br label %eh.resume

nrvo.unused:                                      ; preds = %invoke.cont1
  call void @_ZNSt7__cxx1112basic_stringIcSt11char_traitsIcESaIcEED1Ev(ptr noundef nonnull align 8 dereferenceable(32) %agg.result) #3
  br label %nrvo.skipdtor

nrvo.skipdtor:                                    ; preds = %nrvo.unused, %invoke.cont1
  ret void

eh.resume:                                        ; preds = %lpad
  %exn = load ptr, ptr %exn.slot, align 8
  %sel = load i32, ptr %ehselector.slot, align 4
  %lpad.val = insertvalue { ptr, i32 } poison, ptr %exn, 0
  %lpad.val2 = insertvalue { ptr, i32 } %lpad.val, i32 %sel, 1
  resume { ptr, i32 } %lpad.val2
}