; Function Attrs: mustprogress uwtable
define internal fastcc void @_ZN8facebook5velox9functions12_GLOBAL__N_116FromUtf8Function17codePointToStringB5cxx11El(ptr noalias nonnull align 8 %agg.result, i64 noundef %codePoint) unnamed_addr #0 align 2 personality ptr @__gxx_personality_v0 {
entry:
  tail call void @_ZNSt7__cxx1112basic_stringIcSt11char_traitsIcESaIcEEC1Ev(ptr noundef nonnull align 8 dereferenceable(32) %agg.result) #33
  invoke void @_ZNSt7__cxx1112basic_stringIcSt11char_traitsIcESaIcEE6resizeEm(ptr noundef nonnull align 8 dereferenceable(32) %agg.result, i64 noundef 4)
          to label %invoke.cont unwind label %lpad

invoke.cont:                                      ; preds = %entry
  %cmp.i = icmp slt i64 %codePoint, 2147483648
  br i1 %cmp.i, label %land.rhs.i, label %if.then.i

land.rhs.i:                                       ; preds = %invoke.cont
  %conv.i = trunc i64 %codePoint to i32
  %0 = and i32 %conv.i, -2048
  %cmp.i5 = icmp eq i32 %0, 55296
  %cmp1.i = icmp ugt i32 %conv.i, 1114111
  %.not = or i1 %cmp1.i, %cmp.i5
  br i1 %.not, label %if.then.i, label %if.end.i

if.then.i:                                        ; preds = %invoke.cont, %land.rhs.i
  tail call void @llvm.trap()
  unreachable

if.end.i:                                         ; preds = %land.rhs.i
  invoke void @_ZNSt7__cxx1112basic_stringIcSt11char_traitsIcESaIcEE7reserveEm(ptr noundef nonnull align 8 dereferenceable(32) %agg.result, i64 noundef 4)
          to label %if.else.i unwind label %lpad

if.else.i:                                        ; preds = %if.end.i
  %call3.i = tail call noundef ptr @_ZNSt7__cxx1112basic_stringIcSt11char_traitsIcESaIcEE4dataEv(ptr noundef nonnull align 8 dereferenceable(32) %agg.result) #33
  %cmp1.i7 = icmp ult i32 %conv.i, 128
  br i1 %cmp1.i7, label %if.then2.i, label %if.else3.i

if.then2.i:                                       ; preds = %if.else.i
  %conv.i8 = trunc i64 %codePoint to i8
  store i8 %conv.i8, ptr %call3.i, align 1
  br label %_ZL20utf8proc_encode_chariPh.exit

if.else3.i:                                       ; preds = %if.else.i
  %cmp4.i = icmp ult i32 %conv.i, 2048
  br i1 %cmp4.i, label %if.then5.i, label %if.else11.i

if.then5.i:                                       ; preds = %if.else3.i
  %shr.i14 = lshr i64 %codePoint, 6
  %1 = trunc i64 %shr.i14 to i8
  %conv6.i = or disjoint i8 %1, -64
  store i8 %conv6.i, ptr %call3.i, align 1
  %2 = trunc i64 %codePoint to i8
  %3 = and i8 %2, 63
  %conv9.i = or disjoint i8 %3, -128
  %arrayidx10.i = getelementptr inbounds i8, ptr %call3.i, i64 1
  store i8 %conv9.i, ptr %arrayidx10.i, align 1
  br label %_ZL20utf8proc_encode_chariPh.exit

if.else11.i:                                      ; preds = %if.else3.i
  %cmp12.i = icmp ult i32 %conv.i, 65536
  br i1 %cmp12.i, label %if.then13.i, label %if.then29.i

if.then13.i:                                      ; preds = %if.else11.i
  %arrayidx22.i = getelementptr inbounds i8, ptr %call3.i, i64 1
  %shr14.i12 = lshr i64 %codePoint, 12
  %4 = trunc i64 %shr14.i12 to i8
  %conv16.i = or disjoint i8 %4, -32
  store i8 %conv16.i, ptr %call3.i, align 1
  %shr18.i13 = lshr i64 %codePoint, 6
  %5 = trunc i64 %shr18.i13 to i8
  %6 = and i8 %5, 63
  %conv21.i = or disjoint i8 %6, -128
  store i8 %conv21.i, ptr %arrayidx22.i, align 1
  %7 = trunc i64 %codePoint to i8
  %8 = and i8 %7, 63
  %conv25.i = or disjoint i8 %8, -128
  %arrayidx26.i = getelementptr inbounds i8, ptr %call3.i, i64 2
  store i8 %conv25.i, ptr %arrayidx26.i, align 1
  br label %_ZL20utf8proc_encode_chariPh.exit

if.then29.i:                                      ; preds = %if.else11.i
  %shr30.i9 = lshr i64 %codePoint, 18
  %9 = trunc i64 %shr30.i9 to i8
  %shr34.i10 = lshr i64 %codePoint, 12
  %10 = trunc i64 %shr34.i10 to i8
  %11 = and i8 %10, 63
  %shr39.i11 = lshr i64 %codePoint, 6
  %12 = trunc i64 %shr39.i11 to i8
  %13 = and i8 %12, 63
  %14 = trunc i64 %codePoint to i8
  %15 = and i8 %14, 63
  %16 = insertelement <4 x i8> poison, i8 %9, i64 0
  %17 = insertelement <4 x i8> %16, i8 %11, i64 1
  %18 = insertelement <4 x i8> %17, i8 %13, i64 2
  %19 = insertelement <4 x i8> %18, i8 %15, i64 3
  %20 = or disjoint <4 x i8> %19, <i8 -16, i8 -128, i8 -128, i8 -128>
  store <4 x i8> %20, ptr %call3.i, align 1
  br label %_ZL20utf8proc_encode_chariPh.exit

_ZL20utf8proc_encode_chariPh.exit:                ; preds = %if.then2.i, %if.then5.i, %if.then13.i, %if.then29.i
  %retval.0.i = phi i64 [ 1, %if.then2.i ], [ 2, %if.then5.i ], [ 3, %if.then13.i ], [ 4, %if.then29.i ]
  invoke void @_ZNSt7__cxx1112basic_stringIcSt11char_traitsIcESaIcEE6resizeEm(ptr noundef nonnull align 8 dereferenceable(32) %agg.result, i64 noundef %retval.0.i)
          to label %nrvo.skipdtor unwind label %lpad

lpad:                                             ; preds = %_ZL20utf8proc_encode_chariPh.exit, %if.end.i, %entry
  %21 = landingpad { ptr, i32 }
          cleanup
  tail call void @_ZNSt7__cxx1112basic_stringIcSt11char_traitsIcESaIcEED1Ev(ptr noundef nonnull align 8 dereferenceable(32) %agg.result) #33
  resume { ptr, i32 } %21

nrvo.skipdtor:                                    ; preds = %_ZL20utf8proc_encode_chariPh.exit
  ret void
}